target datalayout = "e-m:e-p270:32:32-p271:32:32-p272:64:64-i64:64-i128:128-f80:128-n8:16:32:64-S128"
target triple = "x86_64-pc-linux-gnu"

%struct.evthread_lock_callbacks = type { i32, i32, ptr, ptr, ptr, ptr }
%struct.eventop = type { ptr, ptr, ptr, ptr, ptr, ptr, i32, i32, i64 }
%struct.event_base = type { ptr, ptr, %struct.event_changelist, ptr, %struct.evsig_info, i32, i32, i32, i32, i32, i32, i32, i32, i32, i32, i32, i32, ptr, i32, %struct.evcallback_list, ptr, i32, i32, %struct.event_signal_map, %struct.event_signal_map, %struct.min_heap, %struct.timeval, %struct.evutil_monotonic_timer, %struct.timeval, i64, i64, ptr, ptr, i32, ptr, i32, %struct.timeval, i32, i32, i32, [2 x i32], %struct.event, ptr, %struct.evutil_weakrand_state, %struct.once_event_list, [2 x %struct.evwatch_list] }
%struct.event_changelist = type { ptr, i32, i32 }
%struct.evsig_info = type { %struct.event, [2 x i32], i32, i32, [65 x ptr], ptr, i32 }
%struct.evcallback_list = type { ptr, ptr }
%struct.event_signal_map = type { ptr, i32 }
%struct.min_heap = type { ptr, i64, i64 }
%struct.evutil_monotonic_timer = type { i32, %struct.timeval, %struct.timeval }
%struct.timeval = type { i64, i64 }
%struct.event = type { %struct.event_callback, %union.anon.0, i32, i16, i16, ptr, %union.anon.2, %struct.timeval }
%struct.event_callback = type { %struct.anon, i16, i8, i8, %union.anon, ptr }
%struct.anon = type { ptr, ptr }
%union.anon = type { ptr }
%union.anon.0 = type { %struct.anon.1 }
%struct.anon.1 = type { ptr, ptr }
%union.anon.2 = type { %struct.anon.3 }
%struct.anon.3 = type { %struct.anon.4, %struct.timeval }
%struct.anon.4 = type { ptr, ptr }
%struct.evutil_weakrand_state = type { i32 }
%struct.once_event_list = type { ptr }
%struct.evwatch_list = type { ptr, ptr }

@evsig_base_lock = internal global ptr null, align 8
@evthread_lock_fns_ = external global %struct.evthread_lock_callbacks, align 8
@evsig_base = internal global ptr null, align 8
@evsig_base_n_signals_added = internal global i32 0, align 4
@evsig_base_fd = internal global i32 -1, align 4
@event_debug_logging_mask_ = external global i32, align 4
@.str.10 = private unnamed_addr constant [32 x i8] c"%s: %d: changing signal handler\00", align 1
@__func__.evsig_add = private unnamed_addr constant [10 x i8] c"evsig_add\00", align 1

; Function Attrs: nounwind uwtable
define internal i32 @evsig_add(ptr noundef %0, i32 noundef %1, i16 noundef signext %2, i16 noundef signext %3, ptr noundef %4) #0 {
  %6 = alloca i32, align 4
  %7 = alloca ptr, align 8
  %8 = alloca i32, align 4
  %9 = alloca i16, align 2
  %10 = alloca i16, align 2
  %11 = alloca ptr, align 8
  %12 = alloca ptr, align 8
  %13 = alloca i32, align 4
  store ptr %0, ptr %7, align 8
  store i32 %1, ptr %8, align 4
  store i16 %2, ptr %9, align 2
  store i16 %3, ptr %10, align 2
  store ptr %4, ptr %11, align 8
  call void @llvm.lifetime.start.p0(i64 8, ptr %12) #8
  %14 = load ptr, ptr %7, align 8
  %15 = getelementptr inbounds nuw %struct.event_base, ptr %14, i32 0, i32 4
  store ptr %15, ptr %12, align 8
  br label %16

16:                                               ; preds = %5
  br label %17

17:                                               ; preds = %16
  br label %18

18:                                               ; preds = %17
  br label %19

19:                                               ; preds = %18
  %20 = load ptr, ptr @evsig_base_lock, align 8
  %21 = icmp ne ptr %20, null
  br i1 %21, label %22, label %26

22:                                               ; preds = %19
  %23 = load ptr, ptr getelementptr inbounds nuw (%struct.evthread_lock_callbacks, ptr @evthread_lock_fns_, i32 0, i32 4), align 8
  %24 = load ptr, ptr @evsig_base_lock, align 8
  %25 = call i32 %23(i32 noundef 0, ptr noundef %24)
  br label %26

26:                                               ; preds = %22, %19
  br label %27

27:                                               ; preds = %26
  br label %28

28:                                               ; preds = %27
  %29 = load ptr, ptr @evsig_base, align 8
  %30 = load ptr, ptr %7, align 8
  %31 = icmp ne ptr %29, %30
  br i1 %31, label %32, label %43

32:                                               ; preds = %28
  %33 = load i32, ptr @evsig_base_n_signals_added, align 4
  %34 = icmp ne i32 %33, 0
  br i1 %34, label %35, label %43

35:                                               ; preds = %32
  %36 = load ptr, ptr %7, align 8
  %37 = load ptr, ptr @evsig_base, align 8
  %38 = load ptr, ptr %7, align 8
  %39 = getelementptr inbounds nuw %struct.event_base, ptr %38, i32 0, i32 0
  %40 = load ptr, ptr %39, align 8
  %41 = getelementptr inbounds nuw %struct.eventop, ptr %40, i32 0, i32 0
  %42 = load ptr, ptr %41, align 8
  call void (ptr, ...) @event_warnx(ptr noundef @.str.9, ptr noundef %36, ptr noundef %37, ptr noundef %42)
  br label %43

43:                                               ; preds = %35, %32, %28
  %44 = load ptr, ptr %7, align 8
  store ptr %44, ptr @evsig_base, align 8
  %45 = load ptr, ptr %12, align 8
  %46 = getelementptr inbounds nuw %struct.evsig_info, ptr %45, i32 0, i32 3
  %47 = load i32, ptr %46, align 4
  %48 = add nsw i32 %47, 1
  store i32 %48, ptr %46, align 4
  store i32 %48, ptr @evsig_base_n_signals_added, align 4
  %49 = load ptr, ptr %7, align 8
  %50 = getelementptr inbounds nuw %struct.event_base, ptr %49, i32 0, i32 4
  %51 = getelementptr inbounds nuw %struct.evsig_info, ptr %50, i32 0, i32 1
  %52 = getelementptr inbounds [2 x i32], ptr %51, i64 0, i64 1
  %53 = load i32, ptr %52, align 4
  store i32 %53, ptr @evsig_base_fd, align 4
  br label %54

54:                                               ; preds = %43
  %55 = load ptr, ptr @evsig_base_lock, align 8
  %56 = icmp ne ptr %55, null
  br i1 %56, label %57, label %61

57:                                               ; preds = %54
  %58 = load ptr, ptr getelementptr inbounds nuw (%struct.evthread_lock_callbacks, ptr @evthread_lock_fns_, i32 0, i32 5), align 8
  %59 = load ptr, ptr @evsig_base_lock, align 8
  %60 = call i32 %58(i32 noundef 0, ptr noundef %59)
  br label %61

61:                                               ; preds = %57, %54
  br label %62

62:                                               ; preds = %61
  br label %63

63:                                               ; preds = %62
  br label %64

64:                                               ; preds = %63
  %65 = load i32, ptr @event_debug_logging_mask_, align 4
  %66 = icmp ne i32 %65, 0
  br i1 %66, label %67, label %69

67:                                               ; preds = %64
  %68 = load i32, ptr %8, align 4
  call void (ptr, ...) @event_debugx_(ptr noundef @.str.10, ptr noundef @__func__.evsig_add, i32 noundef %68)
  br label %69

69:                                               ; preds = %67, %64
  br label %70

70:                                               ; preds = %69
  br label %71

71:                                               ; preds = %70
  %72 = load ptr, ptr %7, align 8
  %73 = load i32, ptr %8, align 4
  %74 = call i32 @evsig_set_handler_(ptr noundef %72, i32 noundef %73, ptr noundef @evsig_handler)
  %75 = icmp eq i32 %74, -1
  br i1 %75, label %76, label %77

76:                                               ; preds = %71
  br label %92

77:                                               ; preds = %71
  %78 = load ptr, ptr %12, align 8
  %79 = getelementptr inbounds nuw %struct.evsig_info, ptr %78, i32 0, i32 2
  %80 = load i32, ptr %79, align 8
  %81 = icmp ne i32 %80, 0
  br i1 %81, label %91, label %82

82:                                               ; preds = %77
  %83 = load ptr, ptr %12, align 8
  %84 = getelementptr inbounds nuw %struct.evsig_info, ptr %83, i32 0, i32 0
  %85 = call i32 @event_add_nolock_(ptr noundef %84, ptr noundef null, i32 noundef 0)
  %86 = icmp ne i32 %85, 0
  br i1 %86, label %87, label %88

87:                                               ; preds = %82
  br label %92

88:                                               ; preds = %82
  %89 = load ptr, ptr %12, align 8
  %90 = getelementptr inbounds nuw %struct.evsig_info, ptr %89, i32 0, i32 2
  store i32 1, ptr %90, align 8
  br label %91

91:                                               ; preds = %88, %77
  store i32 0, ptr %6, align 4
  store i32 1, ptr %13, align 4
  br label %119

92:                                               ; preds = %87, %76
  br label %93

93:                                               ; preds = %92
  %94 = load ptr, ptr @evsig_base_lock, align 8
  %95 = icmp ne ptr %94, null
  br i1 %95, label %96, label %100

96:                                               ; preds = %93
  %97 = load ptr, ptr getelementptr inbounds nuw (%struct.evthread_lock_callbacks, ptr @evthread_lock_fns_, i32 0, i32 4), align 8
  %98 = load ptr, ptr @evsig_base_lock, align 8
  %99 = call i32 %97(i32 noundef 0, ptr noundef %98)
  br label %100

100:                                              ; preds = %96, %93
  br label %101

101:                                              ; preds = %100
  br label %102

102:                                              ; preds = %101
  %103 = load i32, ptr @evsig_base_n_signals_added, align 4
  %104 = add nsw i32 %103, -1
  store i32 %104, ptr @evsig_base_n_signals_added, align 4
  %105 = load ptr, ptr %12, align 8
  %106 = getelementptr inbounds nuw %struct.evsig_info, ptr %105, i32 0, i32 3
  %107 = load i32, ptr %106, align 4
  %108 = add nsw i32 %107, -1
  store i32 %108, ptr %106, align 4
  br label %109

109:                                              ; preds = %102
  %110 = load ptr, ptr @evsig_base_lock, align 8
  %111 = icmp ne ptr %110, null
  br i1 %111, label %112, label %116

112:                                              ; preds = %109
  %113 = load ptr, ptr getelementptr inbounds nuw (%struct.evthread_lock_callbacks, ptr @evthread_lock_fns_, i32 0, i32 5), align 8
  %114 = load ptr, ptr @evsig_base_lock, align 8
  %115 = call i32 %113(i32 noundef 0, ptr noundef %114)
  br label %116

116:                                              ; preds = %112, %109
  br label %117

117:                                              ; preds = %116
  br label %118

118:                                              ; preds = %117
  store i32 -1, ptr %6, align 4
  store i32 1, ptr %13, align 4
  br label %119

119:                                              ; preds = %118, %91
  call void @llvm.lifetime.end.p0(i64 8, ptr %12) #8
  %120 = load i32, ptr %6, align 4
  ret i32 %120
}