; Function Attrs: nounwind uwtable
define internal range(i32 -1, 1) i32 @evsig_add(ptr noundef %0, i32 noundef %1, i16 signext %2, i16 signext %3, ptr readnone captures(none) %4) #0 {
  %6 = getelementptr inbounds nuw i8, ptr %0, i64 40
  %7 = load ptr, ptr @evsig_base_lock, align 8
  %.not = icmp eq ptr %7, null
  br i1 %.not, label %11, label %8

8:                                                ; preds = %5
  %9 = load ptr, ptr getelementptr inbounds nuw (i8, ptr @evthread_lock_fns_, i64 24), align 8
  %10 = tail call i32 %9(i32 noundef 0, ptr noundef nonnull %7) #8
  br label %11

11:                                               ; preds = %8, %5
  %12 = load ptr, ptr @evsig_base, align 8
  %13 = icmp ne ptr %12, %0
  %14 = load i32, ptr @evsig_base_n_signals_added, align 4
  %15 = icmp ne i32 %14, 0
  %or.cond = select i1 %13, i1 %15, i1 false
  br i1 %or.cond, label %16, label %19

16:                                               ; preds = %11
  %17 = load ptr, ptr %0, align 8
  %18 = load ptr, ptr %17, align 8
  tail call void (ptr, ...) @event_warnx(ptr noundef nonnull @.str.9, ptr noundef nonnull %0, ptr noundef %12, ptr noundef %18) #8
  br label %19

19:                                               ; preds = %16, %11
  store ptr %0, ptr @evsig_base, align 8
  %20 = getelementptr inbounds nuw i8, ptr %0, i64 172
  %21 = load i32, ptr %20, align 4
  %22 = add nsw i32 %21, 1
  store i32 %22, ptr %20, align 4
  store i32 %22, ptr @evsig_base_n_signals_added, align 4
  %23 = getelementptr inbounds nuw i8, ptr %0, i64 164
  %24 = load i32, ptr %23, align 4
  store i32 %24, ptr @evsig_base_fd, align 4
  %25 = load ptr, ptr @evsig_base_lock, align 8
  %.not21 = icmp eq ptr %25, null
  br i1 %.not21, label %29, label %26

26:                                               ; preds = %19
  %27 = load ptr, ptr getelementptr inbounds nuw (i8, ptr @evthread_lock_fns_, i64 32), align 8
  %28 = tail call i32 %27(i32 noundef 0, ptr noundef nonnull %25) #8
  br label %29

29:                                               ; preds = %19, %26
  %30 = load i32, ptr @event_debug_logging_mask_, align 4
  %.not22 = icmp eq i32 %30, 0
  br i1 %.not22, label %32, label %31

31:                                               ; preds = %29
  tail call void (ptr, ...) @event_debugx_(ptr noundef nonnull @.str.10, ptr noundef nonnull @__func__.evsig_add, i32 noundef %1) #8
  br label %32

32:                                               ; preds = %31, %29
  %33 = tail call i32 @evsig_set_handler_(ptr noundef nonnull %0, i32 noundef %1, ptr noundef nonnull @evsig_handler)
  %34 = icmp eq i32 %33, -1
  br i1 %34, label %41, label %35

35:                                               ; preds = %32
  %36 = getelementptr inbounds nuw i8, ptr %0, i64 168
  %37 = load i32, ptr %36, align 8
  %.not23 = icmp eq i32 %37, 0
  br i1 %.not23, label %38, label %55

38:                                               ; preds = %35
  %39 = tail call i32 @event_add_nolock_(ptr noundef nonnull %6, ptr noundef null, i32 noundef 0) #8
  %.not24 = icmp eq i32 %39, 0
  br i1 %.not24, label %40, label %41

40:                                               ; preds = %38
  store i32 1, ptr %36, align 8
  br label %55

41:                                               ; preds = %32, %38
  %42 = load ptr, ptr @evsig_base_lock, align 8
  %.not25 = icmp eq ptr %42, null
  br i1 %.not25, label %46, label %43

43:                                               ; preds = %41
  %44 = load ptr, ptr getelementptr inbounds nuw (i8, ptr @evthread_lock_fns_, i64 24), align 8
  %45 = tail call i32 %44(i32 noundef 0, ptr noundef nonnull %42) #8
  %.pr = load ptr, ptr @evsig_base_lock, align 8
  br label %46

46:                                               ; preds = %43, %41
  %47 = phi ptr [ %.pr, %43 ], [ null, %41 ]
  %48 = load i32, ptr @evsig_base_n_signals_added, align 4
  %49 = add nsw i32 %48, -1
  store i32 %49, ptr @evsig_base_n_signals_added, align 4
  %50 = load i32, ptr %20, align 4
  %51 = add nsw i32 %50, -1
  store i32 %51, ptr %20, align 4
  %.not26 = icmp eq ptr %47, null
  br i1 %.not26, label %55, label %52

52:                                               ; preds = %46
  %53 = load ptr, ptr getelementptr inbounds nuw (i8, ptr @evthread_lock_fns_, i64 32), align 8
  %54 = tail call i32 %53(i32 noundef 0, ptr noundef nonnull %47) #8
  br label %55

55:                                               ; preds = %46, %52, %35, %40
  %.0 = phi i32 [ 0, %40 ], [ 0, %35 ], [ -1, %52 ], [ -1, %46 ]
  ret i32 %.0
}